target datalayout = "e-m:e-p270:32:32-p271:32:32-p272:64:64-i64:64-i128:128-f80:128-n8:16:32:64-S128"
target triple = "x86_64-unknown-linux-gnu"

%"class.zmq::ws_decoder_t" = type { %"class.zmq::decoder_base_t", [8 x i8], i8, %"class.zmq::msg_t", i8, i64, i8, i64, i32, [4 x i8] }
%"class.zmq::decoder_base_t" = type { %"class.zmq::i_decoder", { i64, i64 }, ptr, i64, %"class.zmq::shared_message_memory_allocator", ptr }
%"class.zmq::i_decoder" = type { ptr }
%"class.zmq::shared_message_memory_allocator" = type { ptr, i64, i64, ptr, i64 }
%"class.zmq::msg_t" = type { %union.anon }
%union.anon = type { %struct.anon }
%struct.anon = type { ptr, [34 x i8], i8, i8, i32, %"union.zmq::msg_t::group_t" }
%"union.zmq::msg_t::group_t" = type { %struct.anon.1 }
%struct.anon.1 = type { i8, ptr }

; Function Attrs: mustprogress nounwind uwtable
define linkonce_odr void @_ZN3zmq14decoder_base_tINS_12ws_decoder_tENS_31shared_message_memory_allocatorEE9next_stepEPvmMS1_FiPKhE(ptr noundef nonnull align 8 dereferenceable(88) %this, ptr noundef %read_pos_, i64 noundef %to_read_, i64 %next_.coerce0, i64 %next_.coerce1) #5 comdat align 2 {
entry:
  %next_ = alloca { i64, i64 }, align 8
  %this.addr = alloca ptr, align 8
  %read_pos_.addr = alloca ptr, align 8
  %to_read_.addr = alloca i64, align 8
  %next_.addr = alloca { i64, i64 }, align 8
  %0 = getelementptr inbounds { i64, i64 }, ptr %next_, i32 0, i32 0
  store i64 %next_.coerce0, ptr %0, align 8
  %1 = getelementptr inbounds { i64, i64 }, ptr %next_, i32 0, i32 1
  store i64 %next_.coerce1, ptr %1, align 8
  %next_1 = load { i64, i64 }, ptr %next_, align 8
  store ptr %this, ptr %this.addr, align 8
  store ptr %read_pos_, ptr %read_pos_.addr, align 8
  store i64 %to_read_, ptr %to_read_.addr, align 8
  store { i64, i64 } %next_1, ptr %next_.addr, align 8
  %this2 = load ptr, ptr %this.addr, align 8
  %2 = load ptr, ptr %read_pos_.addr, align 8
  %_read_pos = getelementptr inbounds %"class.zmq::decoder_base_t", ptr %this2, i32 0, i32 2
  store ptr %2, ptr %_read_pos, align 8
  %3 = load i64, ptr %to_read_.addr, align 8
  %_to_read = getelementptr inbounds %"class.zmq::decoder_base_t", ptr %this2, i32 0, i32 3
  store i64 %3, ptr %_to_read, align 8
  %4 = load { i64, i64 }, ptr %next_.addr, align 8
  %_next = getelementptr inbounds %"class.zmq::decoder_base_t", ptr %this2, i32 0, i32 1
  store { i64, i64 } %4, ptr %_next, align 8
  ret void
}

; Function Attrs: mustprogress nounwind uwtable
define linkonce_odr noundef i64 @_ZN3zmq10get_uint64EPKh(ptr noundef %buffer_) #5 comdat {
entry:
  %buffer_.addr = alloca ptr, align 8
  store ptr %buffer_, ptr %buffer_.addr, align 8
  %0 = load ptr, ptr %buffer_.addr, align 8
  %arrayidx = getelementptr inbounds i8, ptr %0, i64 0
  %1 = load i8, ptr %arrayidx, align 1
  %conv = zext i8 %1 to i64
  %shl = shl i64 %conv, 56
  %2 = load ptr, ptr %buffer_.addr, align 8
  %arrayidx1 = getelementptr inbounds i8, ptr %2, i64 1
  %3 = load i8, ptr %arrayidx1, align 1
  %conv2 = zext i8 %3 to i64
  %shl3 = shl i64 %conv2, 48
  %or = or i64 %shl, %shl3
  %4 = load ptr, ptr %buffer_.addr, align 8
  %arrayidx4 = getelementptr inbounds i8, ptr %4, i64 2
  %5 = load i8, ptr %arrayidx4, align 1
  %conv5 = zext i8 %5 to i64
  %shl6 = shl i64 %conv5, 40
  %or7 = or i64 %or, %shl6
  %6 = load ptr, ptr %buffer_.addr, align 8
  %arrayidx8 = getelementptr inbounds i8, ptr %6, i64 3
  %7 = load i8, ptr %arrayidx8, align 1
  %conv9 = zext i8 %7 to i64
  %shl10 = shl i64 %conv9, 32
  %or11 = or i64 %or7, %shl10
  %8 = load ptr, ptr %buffer_.addr, align 8
  %arrayidx12 = getelementptr inbounds i8, ptr %8, i64 4
  %9 = load i8, ptr %arrayidx12, align 1
  %conv13 = zext i8 %9 to i64
  %shl14 = shl i64 %conv13, 24
  %or15 = or i64 %or11, %shl14
  %10 = load ptr, ptr %buffer_.addr, align 8
  %arrayidx16 = getelementptr inbounds i8, ptr %10, i64 5
  %11 = load i8, ptr %arrayidx16, align 1
  %conv17 = zext i8 %11 to i64
  %shl18 = shl i64 %conv17, 16
  %or19 = or i64 %or15, %shl18
  %12 = load ptr, ptr %buffer_.addr, align 8
  %arrayidx20 = getelementptr inbounds i8, ptr %12, i64 6
  %13 = load i8, ptr %arrayidx20, align 1
  %conv21 = zext i8 %13 to i64
  %shl22 = shl i64 %conv21, 8
  %or23 = or i64 %or19, %shl22
  %14 = load ptr, ptr %buffer_.addr, align 8
  %arrayidx24 = getelementptr inbounds i8, ptr %14, i64 7
  %15 = load i8, ptr %arrayidx24, align 1
  %conv25 = zext i8 %15 to i64
  %or26 = or i64 %or23, %conv25
  ret i64 %or26
}

; Function Attrs: mustprogress uwtable
define noundef i32 @_ZN3zmq12ws_decoder_t15long_size_readyEPKh(ptr noundef nonnull align 8 dereferenceable(208) %this, ptr noundef %read_from_) #0 align 2 {
entry:
  %retval = alloca i32, align 4
  %this.addr = alloca ptr, align 8
  %read_from_.addr = alloca ptr, align 8
  %coerce = alloca { i64, i64 }, align 8
  %coerce10 = alloca { i64, i64 }, align 8
  store ptr %this, ptr %this.addr, align 8
  store ptr %read_from_, ptr %read_from_.addr, align 8
  %this1 = load ptr, ptr %this.addr, align 8
  %_tmpbuf = getelementptr inbounds %"class.zmq::ws_decoder_t", ptr %this1, i32 0, i32 1
  %arraydecay = getelementptr inbounds [8 x i8], ptr %_tmpbuf, i64 0, i64 0
  %call = call noundef i64 @_ZN3zmq10get_uint64EPKh(ptr noundef %arraydecay)
  %_size = getelementptr inbounds %"class.zmq::ws_decoder_t", ptr %this1, i32 0, i32 7
  store i64 %call, ptr %_size, align 8
  %_must_mask = getelementptr inbounds %"class.zmq::ws_decoder_t", ptr %this1, i32 0, i32 6
  %0 = load i8, ptr %_must_mask, align 8
  %tobool = trunc i8 %0 to i1
  br i1 %tobool, label %if.then, label %if.else

if.then:                                          ; preds = %entry
  %_tmpbuf2 = getelementptr inbounds %"class.zmq::ws_decoder_t", ptr %this1, i32 0, i32 1
  %arraydecay3 = getelementptr inbounds [8 x i8], ptr %_tmpbuf2, i64 0, i64 0
  store { i64, i64 } { i64 ptrtoint (ptr @_ZN3zmq12ws_decoder_t10mask_readyEPKh to i64), i64 0 }, ptr %coerce, align 8
  %1 = getelementptr inbounds { i64, i64 }, ptr %coerce, i32 0, i32 0
  %2 = load i64, ptr %1, align 8
  %3 = getelementptr inbounds { i64, i64 }, ptr %coerce, i32 0, i32 1
  %4 = load i64, ptr %3, align 8
  call void @_ZN3zmq14decoder_base_tINS_12ws_decoder_tENS_31shared_message_memory_allocatorEE9next_stepEPvmMS1_FiPKhE(ptr noundef nonnull align 8 dereferenceable(88) %this1, ptr noundef %arraydecay3, i64 noundef 4, i64 %2, i64 %4)
  br label %if.end14

if.else:                                          ; preds = %entry
  %_opcode = getelementptr inbounds %"class.zmq::ws_decoder_t", ptr %this1, i32 0, i32 8
  %5 = load i32, ptr %_opcode, align 8
  %cmp = icmp eq i32 %5, 2
  br i1 %cmp, label %if.then4, label %if.else11

if.then4:                                         ; preds = %if.else
  %_size5 = getelementptr inbounds %"class.zmq::ws_decoder_t", ptr %this1, i32 0, i32 7
  %6 = load i64, ptr %_size5, align 8
  %cmp6 = icmp eq i64 %6, 0
  br i1 %cmp6, label %if.then7, label %if.end

if.then7:                                         ; preds = %if.then4
  store i32 -1, ptr %retval, align 4
  br label %return

if.end:                                           ; preds = %if.then4
  %_tmpbuf8 = getelementptr inbounds %"class.zmq::ws_decoder_t", ptr %this1, i32 0, i32 1
  %arraydecay9 = getelementptr inbounds [8 x i8], ptr %_tmpbuf8, i64 0, i64 0
  store { i64, i64 } { i64 ptrtoint (ptr @_ZN3zmq12ws_decoder_t11flags_readyEPKh to i64), i64 0 }, ptr %coerce10, align 8
  %7 = getelementptr inbounds { i64, i64 }, ptr %coerce10, i32 0, i32 0
  %8 = load i64, ptr %7, align 8
  %9 = getelementptr inbounds { i64, i64 }, ptr %coerce10, i32 0, i32 1
  %10 = load i64, ptr %9, align 8
  call void @_ZN3zmq14decoder_base_tINS_12ws_decoder_tENS_31shared_message_memory_allocatorEE9next_stepEPvmMS1_FiPKhE(ptr noundef nonnull align 8 dereferenceable(88) %this1, ptr noundef %arraydecay9, i64 noundef 1, i64 %8, i64 %10)
  br label %if.end13

if.else11:                                        ; preds = %if.else
  %11 = load ptr, ptr %read_from_.addr, align 8
  %call12 = call noundef i32 @_ZN3zmq12ws_decoder_t10size_readyEPKh(ptr noundef nonnull align 8 dereferenceable(208) %this1, ptr noundef %11)
  store i32 %call12, ptr %retval, align 4
  br label %return

if.end13:                                         ; preds = %if.end
  br label %if.end14

if.end14:                                         ; preds = %if.end13, %if.then
  store i32 0, ptr %retval, align 4
  br label %return

return:                                           ; preds = %if.end14, %if.else11, %if.then7
  %12 = load i32, ptr %retval, align 4
  ret i32 %12
}