; Function Attrs: mustprogress uwtable
define noundef i32 @_ZN3zmq12ws_decoder_t15long_size_readyEPKh(ptr noundef nonnull align 8 dereferenceable(208) %this, ptr noundef %read_from_) #0 align 2 {
entry:
  %_tmpbuf = getelementptr inbounds i8, ptr %this, i64 88
  %0 = load i8, ptr %_tmpbuf, align 8
  %conv.i = zext i8 %0 to i64
  %shl.i = shl nuw i64 %conv.i, 56
  %arrayidx1.i = getelementptr inbounds i8, ptr %this, i64 89
  %1 = load i8, ptr %arrayidx1.i, align 1
  %conv2.i = zext i8 %1 to i64
  %shl3.i = shl nuw nsw i64 %conv2.i, 48
  %or.i = or disjoint i64 %shl3.i, %shl.i
  %arrayidx4.i = getelementptr inbounds i8, ptr %this, i64 90
  %2 = load i8, ptr %arrayidx4.i, align 2
  %conv5.i = zext i8 %2 to i64
  %shl6.i = shl nuw nsw i64 %conv5.i, 40
  %or7.i = or disjoint i64 %or.i, %shl6.i
  %arrayidx8.i = getelementptr inbounds i8, ptr %this, i64 91
  %3 = load i8, ptr %arrayidx8.i, align 1
  %conv9.i = zext i8 %3 to i64
  %shl10.i = shl nuw nsw i64 %conv9.i, 32
  %or11.i = or disjoint i64 %or7.i, %shl10.i
  %arrayidx12.i = getelementptr inbounds i8, ptr %this, i64 92
  %4 = load i8, ptr %arrayidx12.i, align 4
  %conv13.i = zext i8 %4 to i64
  %shl14.i = shl nuw nsw i64 %conv13.i, 24
  %or15.i = or disjoint i64 %or11.i, %shl14.i
  %arrayidx16.i = getelementptr inbounds i8, ptr %this, i64 93
  %5 = load i8, ptr %arrayidx16.i, align 1
  %conv17.i = zext i8 %5 to i64
  %shl18.i = shl nuw nsw i64 %conv17.i, 16
  %or19.i = or disjoint i64 %or15.i, %shl18.i
  %arrayidx20.i = getelementptr inbounds i8, ptr %this, i64 94
  %6 = load i8, ptr %arrayidx20.i, align 2
  %conv21.i = zext i8 %6 to i64
  %shl22.i = shl nuw nsw i64 %conv21.i, 8
  %or23.i = or i64 %or19.i, %shl22.i
  %arrayidx24.i = getelementptr inbounds i8, ptr %this, i64 95
  %7 = load i8, ptr %arrayidx24.i, align 1
  %conv25.i = zext i8 %7 to i64
  %or26.i = or i64 %or23.i, %conv25.i
  %_size = getelementptr inbounds i8, ptr %this, i64 192
  store i64 %or26.i, ptr %_size, align 8
  %_must_mask = getelementptr inbounds i8, ptr %this, i64 184
  %8 = load i8, ptr %_must_mask, align 8
  %9 = and i8 %8, 1
  %tobool.not = icmp eq i8 %9, 0
  br i1 %tobool.not, label %if.else, label %if.then

if.then:                                          ; preds = %entry
  %_read_pos.i = getelementptr inbounds i8, ptr %this, i64 24
  store ptr %_tmpbuf, ptr %_read_pos.i, align 8
  %_to_read.i = getelementptr inbounds i8, ptr %this, i64 32
  store i64 4, ptr %_to_read.i, align 8
  %_next.i = getelementptr inbounds i8, ptr %this, i64 8
  store i64 ptrtoint (ptr @_ZN3zmq12ws_decoder_t10mask_readyEPKh to i64), ptr %_next.i, align 8
  %_next.repack1.i = getelementptr inbounds i8, ptr %this, i64 16
  store i64 0, ptr %_next.repack1.i, align 8
  br label %return

if.else:                                          ; preds = %entry
  %_opcode = getelementptr inbounds i8, ptr %this, i64 200
  %10 = load i32, ptr %_opcode, align 8
  %cmp = icmp eq i32 %10, 2
  br i1 %cmp, label %if.then4, label %if.else11

if.then4:                                         ; preds = %if.else
  %cmp6 = icmp eq i64 %or26.i, 0
  br i1 %cmp6, label %return, label %if.end

if.end:                                           ; preds = %if.then4
  %_read_pos.i1 = getelementptr inbounds i8, ptr %this, i64 24
  store ptr %_tmpbuf, ptr %_read_pos.i1, align 8
  %_to_read.i2 = getelementptr inbounds i8, ptr %this, i64 32
  store i64 1, ptr %_to_read.i2, align 8
  %_next.i3 = getelementptr inbounds i8, ptr %this, i64 8
  store i64 ptrtoint (ptr @_ZN3zmq12ws_decoder_t11flags_readyEPKh to i64), ptr %_next.i3, align 8
  %_next.repack1.i4 = getelementptr inbounds i8, ptr %this, i64 16
  store i64 0, ptr %_next.repack1.i4, align 8
  br label %return

if.else11:                                        ; preds = %if.else
  %call12 = tail call noundef i32 @_ZN3zmq12ws_decoder_t10size_readyEPKh(ptr noundef nonnull align 8 dereferenceable(208) %this, ptr noundef %read_from_), !range !4
  br label %return

return:                                           ; preds = %if.then, %if.end, %if.then4, %if.else11
  %retval.0 = phi i32 [ %call12, %if.else11 ], [ -1, %if.then4 ], [ 0, %if.end ], [ 0, %if.then ]
  ret i32 %retval.0
}